target datalayout = "e-m:e-p270:32:32-p271:32:32-p272:64:64-i64:64-i128:128-f80:128-n8:16:32:64-S128"
target triple = "x86_64-pc-linux-gnu"

%struct._zend_compiler_globals = type { %struct._zend_stack, ptr, ptr, i32, ptr, ptr, ptr, ptr, i8, i8, i8, i8, i8, %struct._zend_llist, ptr, i8, i8, i8, i8, ptr, i32, i32, %struct._zend_oparray_context, %struct._zend_file_context, ptr, %struct._zend_array, ptr, i64, i8, i8, i8, ptr, ptr, %struct._zend_stack, ptr, i32, ptr, ptr, i64, i64, ptr, ptr, ptr, ptr, i32, %struct._zend_stack }
%struct._zend_llist = type { ptr, ptr, i64, i64, ptr, i8, ptr }
%struct._zend_oparray_context = type { i32, i32, i32, i32, i32, i32, i32, ptr, ptr, i8 }
%struct._zend_file_context = type { %struct._zend_declarables, ptr, i8, i8, ptr, ptr, ptr, %struct._zend_array }
%struct._zend_declarables = type { i64 }
%struct._zend_array = type { %struct._zend_refcounted_h, %union.anon.0, i32, %union.anon.1, i32, i32, i32, i32, i64, ptr }
%struct._zend_refcounted_h = type { i32, %union.anon }
%union.anon = type { i32 }
%union.anon.0 = type { i32 }
%union.anon.1 = type { ptr }
%struct._zend_stack = type { i32, i32, i32, ptr }
%struct._zend_ini_parser_param = type { ptr, ptr }

@compiler_globals = external global %struct._zend_compiler_globals, align 8

; Function Attrs: nounwind uwtable
define dso_local i32 @zend_parse_ini_string(ptr noundef %0, i1 noundef zeroext %1, i32 noundef %2, ptr noundef %3, ptr noundef %4) #0 {
  %6 = alloca i32, align 4
  %7 = alloca ptr, align 8
  %8 = alloca i8, align 1
  %9 = alloca i32, align 4
  %10 = alloca ptr, align 8
  %11 = alloca ptr, align 8
  %12 = alloca i32, align 4
  %13 = alloca %struct._zend_ini_parser_param, align 8
  store ptr %0, ptr %7, align 8
  %14 = zext i1 %1 to i8
  store i8 %14, ptr %8, align 1
  store i32 %2, ptr %9, align 4
  store ptr %3, ptr %10, align 8
  store ptr %4, ptr %11, align 8
  %15 = load ptr, ptr %10, align 8
  %16 = getelementptr inbounds %struct._zend_ini_parser_param, ptr %13, i32 0, i32 0
  store ptr %15, ptr %16, align 8
  %17 = load ptr, ptr %11, align 8
  %18 = getelementptr inbounds %struct._zend_ini_parser_param, ptr %13, i32 0, i32 1
  store ptr %17, ptr %18, align 8
  store ptr %13, ptr getelementptr inbounds (%struct._zend_compiler_globals, ptr @compiler_globals, i32 0, i32 14), align 8
  %19 = load ptr, ptr %7, align 8
  %20 = load i32, ptr %9, align 4
  %21 = call i32 @zend_ini_prepare_string_for_scanning(ptr noundef %19, i32 noundef %20)
  %22 = icmp eq i32 %21, -1
  br i1 %22, label %23, label %24

23:                                               ; preds = %5
  store i32 -1, ptr %6, align 4
  br label %33

24:                                               ; preds = %5
  %25 = load i8, ptr %8, align 1
  %26 = trunc i8 %25 to i1
  %27 = zext i1 %26 to i8
  store i8 %27, ptr getelementptr inbounds (%struct._zend_compiler_globals, ptr @compiler_globals, i32 0, i32 12), align 4
  %28 = call i32 @ini_parse()
  store i32 %28, ptr %12, align 4
  call void @shutdown_ini_scanner()
  %29 = load i32, ptr %12, align 4
  %30 = icmp eq i32 %29, 0
  br i1 %30, label %31, label %32

31:                                               ; preds = %24
  store i32 0, ptr %6, align 4
  br label %33

32:                                               ; preds = %24
  store i32 -1, ptr %6, align 4
  br label %33

33:                                               ; preds = %32, %31, %23
  %34 = load i32, ptr %6, align 4
  ret i32 %34
}