; Function Attrs: nounwind uwtable
define dso_local noundef i32 @zend_parse_ini_string(ptr noundef %0, i1 noundef zeroext %1, i32 noundef %2, ptr noundef %3, ptr noundef %4) local_unnamed_addr #0 {
  %6 = alloca %struct._zend_ini_parser_param, align 8
  store ptr %3, ptr %6, align 8
  %7 = getelementptr inbounds i8, ptr %6, i64 8
  store ptr %4, ptr %7, align 8
  store ptr %6, ptr getelementptr inbounds (%struct._zend_compiler_globals, ptr @compiler_globals, i64 0, i32 14), align 8
  %8 = call i32 @zend_ini_prepare_string_for_scanning(ptr noundef %0, i32 noundef %2) #17
  %9 = icmp eq i32 %8, -1
  br i1 %9, label %14, label %10

10:                                               ; preds = %5
  %11 = zext i1 %1 to i8
  store i8 %11, ptr getelementptr inbounds (%struct._zend_compiler_globals, ptr @compiler_globals, i64 0, i32 12), align 4
  %12 = call i32 @ini_parse(), !range !5
  call void @shutdown_ini_scanner() #17
  %13 = icmp ne i32 %12, 0
  %. = sext i1 %13 to i32
  br label %14

14:                                               ; preds = %10, %5
  %.0 = phi i32 [ -1, %5 ], [ %., %10 ]
  ret i32 %.0
}